target datalayout = "e-m:e-p270:32:32-p271:32:32-p272:64:64-i64:64-i128:128-f80:128-n8:16:32:64-S128"
target triple = "x86_64-pc-linux-gnu"

@hf_pfcp_bbf_prefix_tag_usage = internal global i32 -1, align 4
@hf_pfcp_bbf_prefix_tag = internal global i32 -1, align 4
@.str.2639 = private unnamed_addr constant [8 x i8] c"Unknown\00", align 1
@.str.2719 = private unnamed_addr constant [6 x i8] c" : %s\00", align 1
@.str.2720 = private unnamed_addr constant [6 x i8] c" : %d\00", align 1

; Function Attrs: null_pointer_is_valid sspstrong uwtable
define internal i32 @dissect_pfcp_enterprise_bbf_prefix_tag(ptr noundef %0, ptr noundef %1, ptr noundef %2, ptr noundef %3) #0 {
  %5 = alloca ptr, align 8
  %6 = alloca ptr, align 8
  %7 = alloca ptr, align 8
  %8 = alloca ptr, align 8
  %9 = alloca i32, align 4
  %10 = alloca i32, align 4
  %11 = alloca i32, align 4
  store ptr %0, ptr %5, align 8
  store ptr %1, ptr %6, align 8
  store ptr %2, ptr %7, align 8
  store ptr %3, ptr %8, align 8
  call void @llvm.lifetime.start.p0(i64 4, ptr %9) #13
  call void @llvm.lifetime.start.p0(i64 4, ptr %10) #13
  store i32 0, ptr %10, align 4
  %12 = load ptr, ptr %7, align 8
  %13 = load i32, ptr @hf_pfcp_bbf_prefix_tag_usage, align 4
  %14 = load ptr, ptr %5, align 8
  %15 = load i32, ptr %10, align 4
  %16 = call ptr @proto_tree_add_item_ret_uint(ptr noundef %12, i32 noundef %13, ptr noundef %14, i32 noundef %15, i32 noundef 1, i32 noundef 0, ptr noundef %9)
  %17 = load ptr, ptr %7, align 8
  %18 = call ptr @proto_tree_get_parent(ptr noundef %17)
  %19 = load i32, ptr %9, align 4
  %20 = call ptr @val_to_str_const(i32 noundef %19, ptr noundef @pfcp_bbf_prefix_tag_usage_vals, ptr noundef @.str.2639)
  call void (ptr, ptr, ...) @proto_item_append_text(ptr noundef %18, ptr noundef @.str.2719, ptr noundef %20)
  %21 = load i32, ptr %10, align 4
  %22 = add i32 %21, 1
  store i32 %22, ptr %10, align 4
  %23 = load ptr, ptr %5, align 8
  %24 = call i32 @tvb_reported_length(ptr noundef %23)
  %25 = icmp ugt i32 %24, 1
  br i1 %25, label %26, label %37

26:                                               ; preds = %4
  call void @llvm.lifetime.start.p0(i64 4, ptr %11) #13
  %27 = load ptr, ptr %7, align 8
  %28 = load i32, ptr @hf_pfcp_bbf_prefix_tag, align 4
  %29 = load ptr, ptr %5, align 8
  %30 = load i32, ptr %10, align 4
  %31 = call ptr @proto_tree_add_item_ret_uint(ptr noundef %27, i32 noundef %28, ptr noundef %29, i32 noundef %30, i32 noundef 4, i32 noundef 0, ptr noundef %11)
  %32 = load ptr, ptr %7, align 8
  %33 = call ptr @proto_tree_get_parent(ptr noundef %32)
  %34 = load i32, ptr %11, align 4
  call void (ptr, ptr, ...) @proto_item_append_text(ptr noundef %33, ptr noundef @.str.2720, i32 noundef %34)
  %35 = load i32, ptr %10, align 4
  %36 = add i32 %35, 4
  store i32 %36, ptr %10, align 4
  call void @llvm.lifetime.end.p0(i64 4, ptr %11) #13
  br label %37

37:                                               ; preds = %26, %4
  %38 = load i32, ptr %10, align 4
  call void @llvm.lifetime.end.p0(i64 4, ptr %10) #13
  call void @llvm.lifetime.end.p0(i64 4, ptr %9) #13
  ret i32 %38
}