; Function Attrs: null_pointer_is_valid sspstrong uwtable
define internal range(i32 1, 6) i32 @dissect_pfcp_enterprise_bbf_prefix_tag(ptr noundef %0, ptr readnone captures(none) %1, ptr noundef %2, ptr readnone captures(none) %3) #0 {
  %5 = alloca i32, align 4
  %6 = alloca i32, align 4
  call void @llvm.lifetime.start.p0(i64 4, ptr nonnull %5) #15
  %7 = load i32, ptr @hf_pfcp_bbf_prefix_tag_usage, align 4
  %8 = call ptr @proto_tree_add_item_ret_uint(ptr noundef %2, i32 noundef %7, ptr noundef %0, i32 noundef 0, i32 noundef 1, i32 noundef 0, ptr noundef nonnull %5)
  %9 = call ptr @proto_tree_get_parent(ptr noundef %2)
  %10 = load i32, ptr %5, align 4
  %11 = call ptr @val_to_str_const(i32 noundef %10, ptr noundef nonnull @pfcp_bbf_prefix_tag_usage_vals, ptr noundef nonnull @.str.2639)
  call void (ptr, ptr, ...) @proto_item_append_text(ptr noundef %9, ptr noundef nonnull @.str.2719, ptr noundef %11)
  %12 = call i32 @tvb_reported_length(ptr noundef %0)
  %13 = icmp ugt i32 %12, 1
  br i1 %13, label %14, label %19

14:                                               ; preds = %4
  call void @llvm.lifetime.start.p0(i64 4, ptr nonnull %6) #15
  %15 = load i32, ptr @hf_pfcp_bbf_prefix_tag, align 4
  %16 = call ptr @proto_tree_add_item_ret_uint(ptr noundef %2, i32 noundef %15, ptr noundef %0, i32 noundef 1, i32 noundef 4, i32 noundef 0, ptr noundef nonnull %6)
  %17 = call ptr @proto_tree_get_parent(ptr noundef %2)
  %18 = load i32, ptr %6, align 4
  call void (ptr, ptr, ...) @proto_item_append_text(ptr noundef %17, ptr noundef nonnull @.str.2720, i32 noundef %18)
  call void @llvm.lifetime.end.p0(i64 4, ptr nonnull %6) #15
  br label %19

19:                                               ; preds = %14, %4
  %.0 = phi i32 [ 5, %14 ], [ 1, %4 ]
  call void @llvm.lifetime.end.p0(i64 4, ptr nonnull %5) #15
  ret i32 %.0
}